; Function Attrs: mustprogress nounwind uwtable
define hidden noundef i64 @_ZN17CgroupV1Subsystem12pids_currentEv(ptr nocapture noundef nonnull readonly align 8 dereferenceable(48) %0) unnamed_addr #0 align 2 {
  %2 = alloca i64, align 8
  %3 = getelementptr inbounds i8, ptr %0, i64 40
  %4 = load ptr, ptr %3, align 8
  %5 = icmp eq ptr %4, null
  br i1 %5, label %16, label %6

6:                                                ; preds = %1
  %7 = call noundef zeroext i1 @_ZN16CgroupController11read_numberEPKcPm(ptr noundef nonnull align 8 dereferenceable(8) %4, ptr noundef nonnull @.str.71, ptr noundef nonnull %2) #7
  %8 = load volatile ptr, ptr getelementptr inbounds (i8, ptr @_ZN16LogTagSetMappingILN6LogTag4typeE105ELS1_25ELS1_0ELS1_0ELS1_0ELS1_0EE7_tagsetE, i64 48), align 8
  %.not3 = icmp eq ptr %8, null
  br i1 %7, label %11, label %9

9:                                                ; preds = %6
  br i1 %.not3, label %16, label %10

10:                                               ; preds = %9
  call void (ptr, ...) @_ZN7LogImplILN6LogTag4typeE105ELS1_25ELS1_0ELS1_0ELS1_0ELS1_0EE5writeILN8LogLevel4typeE1EEEvPKcz(ptr noundef nonnull @.str.72, i32 noundef -2)
  br label %16

11:                                               ; preds = %6
  br i1 %.not3, label %14, label %12

12:                                               ; preds = %11
  %13 = load i64, ptr %2, align 8
  call void (ptr, ...) @_ZN7LogImplILN6LogTag4typeE105ELS1_25ELS1_0ELS1_0ELS1_0ELS1_0EE5writeILN8LogLevel4typeE1EEEvPKcz(ptr noundef nonnull @.str.73, i64 noundef %13)
  br label %14

14:                                               ; preds = %11, %12
  %15 = load i64, ptr %2, align 8
  br label %16

16:                                               ; preds = %10, %9, %1, %14
  %.0 = phi i64 [ %15, %14 ], [ -2, %1 ], [ -2, %9 ], [ -2, %10 ]
  ret i64 %.0
}